target datalayout = "e-m:e-p270:32:32-p271:32:32-p272:64:64-i64:64-i128:128-f80:128-n8:16:32:64-S128"
target triple = "x86_64-pc-linux-gnu"

%class.ZErrno = type { i32 }
%class.ZPhysicalMemoryBacking = type <{ i32, [4 x i8], i64, i64, i64, i64, i8, [7 x i8] }>

; Function Attrs: mustprogress nounwind uwtable
define linkonce_odr hidden noundef i64 @_Z10to_zoffsetm(i64 noundef %0) #1 comdat {
  %2 = alloca i64, align 8
  store i64 %0, ptr %2, align 8
  %3 = load i64, ptr %2, align 8
  ret i64 %3
}

; Function Attrs: mustprogress nounwind uwtable
define linkonce_odr hidden noundef i64 @_Z6untype7zoffset(i64 noundef %0) #1 comdat {
  %2 = alloca i64, align 8
  %3 = alloca i64, align 8
  store i64 %0, ptr %2, align 8
  %4 = load i64, ptr %2, align 8
  store i64 %4, ptr %3, align 8
  %5 = load i64, ptr %3, align 8
  ret i64 %5
}

; Function Attrs: mustprogress nounwind uwtable
define linkonce_odr hidden noundef i64 @_Z10align_downImmTnNSt9enable_ifIXcvbsr3std11is_integralIT_EE5valueEiE4typeELi0EES1_S1_T0_(i64 noundef %0, i64 noundef %1) #1 comdat {
  %3 = alloca i64, align 8
  %4 = alloca i64, align 8
  %5 = alloca i64, align 8
  store i64 %0, ptr %3, align 8
  store i64 %1, ptr %4, align 8
  %6 = load i64, ptr %3, align 8
  %7 = load i64, ptr %4, align 8
  %8 = call noundef i64 @_ZL14alignment_maskImTnNSt9enable_ifIXcvbsr3std11is_integralIT_EE5valueEiE4typeELi0EES1_S1_(i64 noundef %7)
  %9 = xor i64 %8, -1
  %10 = and i64 %6, %9
  store i64 %10, ptr %5, align 8
  %11 = load i64, ptr %5, align 8
  ret i64 %11
}

; Function Attrs: mustprogress nounwind uwtable
define linkonce_odr hidden noundef i64 @_Z12checked_castImmET_T0_(i64 noundef %0) #1 comdat {
  %2 = alloca i64, align 8
  %3 = alloca i64, align 8
  store i64 %0, ptr %2, align 8
  %4 = load i64, ptr %2, align 8
  store i64 %4, ptr %3, align 8
  %5 = load i64, ptr %3, align 8
  ret i64 %5
}

; Function Attrs: mustprogress nounwind uwtable
define internal noundef i64 @_ZL14alignment_maskImTnNSt9enable_ifIXcvbsr3std11is_integralIT_EE5valueEiE4typeELi0EES1_S1_(i64 noundef %0) #1 {
  %2 = alloca i64, align 8
  store i64 %0, ptr %2, align 8
  %3 = load i64, ptr %2, align 8
  %4 = sub i64 %3, 1
  ret i64 %4
}

; Function Attrs: mustprogress nounwind uwtable
define linkonce_odr hidden noundef i64 @_Zpl7zoffsetm(i64 noundef %0, i64 noundef %1) #1 comdat {
  %3 = alloca i64, align 8
  %4 = alloca i64, align 8
  store i64 %0, ptr %3, align 8
  store i64 %1, ptr %4, align 8
  %5 = load i64, ptr %3, align 8
  %6 = call noundef i64 @_Z6untype7zoffset(i64 noundef %5)
  %7 = load i64, ptr %4, align 8
  %8 = add i64 %6, %7
  %9 = call noundef i64 @_Z10to_zoffsetm(i64 noundef %8)
  ret i64 %9
}

; Function Attrs: mustprogress nounwind uwtable
define hidden i32 @_ZNK22ZPhysicalMemoryBacking9fallocateEb7zoffsetm(ptr noundef nonnull align 8 dereferenceable(41) %0, i1 noundef zeroext %1, i64 noundef %2, i64 noundef %3) #1 align 2 {
  %5 = alloca %class.ZErrno, align 4
  %6 = alloca ptr, align 8
  %7 = alloca i8, align 1
  %8 = alloca i64, align 8
  %9 = alloca i64, align 8
  %10 = alloca %class.ZErrno, align 4
  store ptr %0, ptr %6, align 8
  %11 = zext i1 %1 to i8
  store i8 %11, ptr %7, align 1
  store i64 %2, ptr %8, align 8
  store i64 %3, ptr %9, align 8
  %12 = load ptr, ptr %6, align 8
  %13 = load i8, ptr %7, align 1
  %14 = trunc i8 %13 to i1
  br i1 %14, label %15, label %20

15:                                               ; preds = %4
  %16 = load i64, ptr %8, align 8
  %17 = load i64, ptr %9, align 8
  %18 = call i32 @_ZNK22ZPhysicalMemoryBacking20fallocate_punch_holeE7zoffsetm(ptr noundef nonnull align 8 dereferenceable(41) %12, i64 noundef %16, i64 noundef %17)
  %19 = getelementptr inbounds %class.ZErrno, ptr %10, i32 0, i32 0
  store i32 %18, ptr %19, align 4
  br label %25

20:                                               ; preds = %4
  %21 = load i64, ptr %8, align 8
  %22 = load i64, ptr %9, align 8
  %23 = call i32 @_ZNK22ZPhysicalMemoryBacking19fallocate_fill_holeE7zoffsetm(ptr noundef nonnull align 8 dereferenceable(41) %12, i64 noundef %21, i64 noundef %22)
  %24 = getelementptr inbounds %class.ZErrno, ptr %10, i32 0, i32 0
  store i32 %23, ptr %24, align 4
  br label %25

25:                                               ; preds = %20, %15
  %26 = call noundef zeroext i1 @_ZNK6ZErrnoeqEi(ptr noundef nonnull align 4 dereferenceable(4) %10, i32 noundef 4)
  br i1 %26, label %27, label %39

27:                                               ; preds = %25
  %28 = load i64, ptr %9, align 8
  %29 = getelementptr inbounds %class.ZPhysicalMemoryBacking, ptr %12, i32 0, i32 4
  %30 = load i64, ptr %29, align 8
  %31 = icmp ugt i64 %28, %30
  br i1 %31, label %32, label %39

32:                                               ; preds = %27
  %33 = load i8, ptr %7, align 1
  %34 = trunc i8 %33 to i1
  %35 = load i64, ptr %8, align 8
  %36 = load i64, ptr %9, align 8
  %37 = call i32 @_ZNK22ZPhysicalMemoryBacking19split_and_fallocateEb7zoffsetm(ptr noundef nonnull align 8 dereferenceable(41) %12, i1 noundef zeroext %34, i64 noundef %35, i64 noundef %36)
  %38 = getelementptr inbounds %class.ZErrno, ptr %5, i32 0, i32 0
  store i32 %37, ptr %38, align 4
  br label %40

39:                                               ; preds = %27, %25
  call void @llvm.memcpy.p0.p0.i64(ptr align 4 %5, ptr align 4 %10, i64 4, i1 false)
  br label %40

40:                                               ; preds = %39, %32
  %41 = getelementptr inbounds %class.ZErrno, ptr %5, i32 0, i32 0
  %42 = load i32, ptr %41, align 4
  ret i32 %42
}

; Function Attrs: mustprogress nounwind uwtable
define linkonce_odr hidden noundef i64 @_Z8align_upImmTnNSt9enable_ifIXcvbsr3std11is_integralIT_EE5valueEiE4typeELi0EES1_S1_T0_(i64 noundef %0, i64 noundef %1) #1 comdat {
  %3 = alloca i64, align 8
  %4 = alloca i64, align 8
  %5 = alloca i64, align 8
  store i64 %0, ptr %3, align 8
  store i64 %1, ptr %4, align 8
  %6 = load i64, ptr %3, align 8
  %7 = load i64, ptr %4, align 8
  %8 = call noundef i64 @_ZL14alignment_maskImTnNSt9enable_ifIXcvbsr3std11is_integralIT_EE5valueEiE4typeELi0EES1_S1_(i64 noundef %7)
  %9 = add i64 %6, %8
  %10 = call noundef i64 @_Z12checked_castImmET_T0_(i64 noundef %9)
  store i64 %10, ptr %5, align 8
  %11 = load i64, ptr %5, align 8
  %12 = load i64, ptr %4, align 8
  %13 = call noundef i64 @_Z10align_downImmTnNSt9enable_ifIXcvbsr3std11is_integralIT_EE5valueEiE4typeELi0EES1_S1_T0_(i64 noundef %11, i64 noundef %12)
  ret i64 %13
}

; Function Attrs: mustprogress nounwind uwtable
define hidden i32 @_ZNK22ZPhysicalMemoryBacking19split_and_fallocateEb7zoffsetm(ptr noundef nonnull align 8 dereferenceable(41) %0, i1 noundef zeroext %1, i64 noundef %2, i64 noundef %3) #1 align 2 {
  %5 = alloca %class.ZErrno, align 4
  %6 = alloca ptr, align 8
  %7 = alloca i8, align 1
  %8 = alloca i64, align 8
  %9 = alloca i64, align 8
  %10 = alloca i64, align 8
  %11 = alloca i64, align 8
  %12 = alloca %class.ZErrno, align 4
  %13 = alloca i64, align 8
  %14 = alloca i64, align 8
  %15 = alloca %class.ZErrno, align 4
  store ptr %0, ptr %6, align 8
  %16 = zext i1 %1 to i8
  store i8 %16, ptr %7, align 1
  store i64 %2, ptr %8, align 8
  store i64 %3, ptr %9, align 8
  %17 = load ptr, ptr %6, align 8
  %18 = load i64, ptr %8, align 8
  store i64 %18, ptr %10, align 8
  %19 = load i64, ptr %9, align 8
  %20 = udiv i64 %19, 2
  %21 = getelementptr inbounds %class.ZPhysicalMemoryBacking, ptr %17, i32 0, i32 4
  %22 = load i64, ptr %21, align 8
  %23 = call noundef i64 @_Z8align_upImmTnNSt9enable_ifIXcvbsr3std11is_integralIT_EE5valueEiE4typeELi0EES1_S1_T0_(i64 noundef %20, i64 noundef %22)
  store i64 %23, ptr %11, align 8
  %24 = load i8, ptr %7, align 1
  %25 = trunc i8 %24 to i1
  %26 = load i64, ptr %10, align 8
  %27 = load i64, ptr %11, align 8
  %28 = call i32 @_ZNK22ZPhysicalMemoryBacking9fallocateEb7zoffsetm(ptr noundef nonnull align 8 dereferenceable(41) %17, i1 noundef zeroext %25, i64 noundef %26, i64 noundef %27)
  %29 = getelementptr inbounds %class.ZErrno, ptr %12, i32 0, i32 0
  store i32 %28, ptr %29, align 4
  %30 = call noundef zeroext i1 @_ZNK6ZErrnocvbEv(ptr noundef nonnull align 4 dereferenceable(4) %12)
  br i1 %30, label %31, label %32

31:                                               ; preds = %4
  call void @llvm.memcpy.p0.p0.i64(ptr align 4 %5, ptr align 4 %12, i64 4, i1 false)
  br label %48

32:                                               ; preds = %4
  %33 = load i64, ptr %10, align 8
  %34 = load i64, ptr %11, align 8
  %35 = call noundef i64 @_Zpl7zoffsetm(i64 noundef %33, i64 noundef %34)
  store i64 %35, ptr %13, align 8
  %36 = load i64, ptr %9, align 8
  %37 = load i64, ptr %11, align 8
  %38 = sub i64 %36, %37
  store i64 %38, ptr %14, align 8
  %39 = load i8, ptr %7, align 1
  %40 = trunc i8 %39 to i1
  %41 = load i64, ptr %13, align 8
  %42 = load i64, ptr %14, align 8
  %43 = call i32 @_ZNK22ZPhysicalMemoryBacking9fallocateEb7zoffsetm(ptr noundef nonnull align 8 dereferenceable(41) %17, i1 noundef zeroext %40, i64 noundef %41, i64 noundef %42)
  %44 = getelementptr inbounds %class.ZErrno, ptr %15, i32 0, i32 0
  store i32 %43, ptr %44, align 4
  %45 = call noundef zeroext i1 @_ZNK6ZErrnocvbEv(ptr noundef nonnull align 4 dereferenceable(4) %15)
  br i1 %45, label %46, label %47

46:                                               ; preds = %32
  call void @llvm.memcpy.p0.p0.i64(ptr align 4 %5, ptr align 4 %15, i64 4, i1 false)
  br label %48

47:                                               ; preds = %32
  call void @_ZN6ZErrnoC1Ei(ptr noundef nonnull align 4 dereferenceable(4) %5, i32 noundef 0)
  br label %48

48:                                               ; preds = %47, %46, %31
  %49 = getelementptr inbounds %class.ZErrno, ptr %5, i32 0, i32 0
  %50 = load i32, ptr %49, align 4
  ret i32 %50
}