; Function Attrs: mustprogress nounwind uwtable
define hidden i32 @_ZNK22ZPhysicalMemoryBacking19split_and_fallocateEb7zoffsetm(ptr noundef nonnull align 8 dereferenceable(41) %0, i1 noundef zeroext %1, i64 noundef %2, i64 noundef %3) local_unnamed_addr #0 align 2 {
  %5 = alloca %class.ZErrno, align 4
  %6 = alloca %class.ZErrno, align 4
  %7 = alloca %class.ZErrno, align 4
  %8 = alloca %class.ZErrno, align 4
  %9 = alloca %class.ZErrno, align 4
  %10 = lshr i64 %3, 1
  %11 = getelementptr inbounds i8, ptr %0, i64 24
  %12 = load i64, ptr %11, align 8
  %13 = add nsw i64 %10, -1
  %14 = add i64 %13, %12
  %15 = sub i64 0, %12
  %16 = and i64 %14, %15
  call void @llvm.lifetime.start.p0(i64 4, ptr nonnull %6)
  br i1 %1, label %17, label %19

17:                                               ; preds = %4
  %18 = tail call i32 @_ZNK22ZPhysicalMemoryBacking20fallocate_punch_holeE7zoffsetm(ptr noundef nonnull align 8 dereferenceable(41) %0, i64 noundef %2, i64 noundef %16)
  br label %21

19:                                               ; preds = %4
  %20 = tail call i32 @_ZNK22ZPhysicalMemoryBacking19fallocate_fill_holeE7zoffsetm(ptr noundef nonnull align 8 dereferenceable(41) %0, i64 noundef %2, i64 noundef %16)
  br label %21

21:                                               ; preds = %19, %17
  %storemerge.i = phi i32 [ %20, %19 ], [ %18, %17 ]
  store i32 %storemerge.i, ptr %6, align 4
  %22 = call noundef zeroext i1 @_ZNK6ZErrnoeqEi(ptr noundef nonnull align 4 dereferenceable(4) %6, i32 noundef 4) #12
  %23 = load i64, ptr %11, align 8
  %24 = icmp ult i64 %23, %16
  %or.cond.i = select i1 %22, i1 %24, i1 false
  br i1 %or.cond.i, label %25, label %27

25:                                               ; preds = %21
  %26 = call i32 @_ZNK22ZPhysicalMemoryBacking19split_and_fallocateEb7zoffsetm(ptr noundef nonnull align 8 dereferenceable(41) %0, i1 noundef zeroext %1, i64 noundef %2, i64 noundef %16)
  br label %_ZNK22ZPhysicalMemoryBacking9fallocateEb7zoffsetm.exit

27:                                               ; preds = %21
  %.sroa.0.0.copyload.i = load i32, ptr %6, align 4
  br label %_ZNK22ZPhysicalMemoryBacking9fallocateEb7zoffsetm.exit

_ZNK22ZPhysicalMemoryBacking9fallocateEb7zoffsetm.exit: ; preds = %25, %27
  %.sroa.0.0.i = phi i32 [ %26, %25 ], [ %.sroa.0.0.copyload.i, %27 ]
  call void @llvm.lifetime.end.p0(i64 4, ptr nonnull %6)
  store i32 %.sroa.0.0.i, ptr %8, align 4
  %28 = call noundef zeroext i1 @_ZNK6ZErrnocvbEv(ptr noundef nonnull align 4 dereferenceable(4) %8) #12
  br i1 %28, label %45, label %29

29:                                               ; preds = %_ZNK22ZPhysicalMemoryBacking9fallocateEb7zoffsetm.exit
  %30 = add i64 %16, %2
  %31 = sub i64 %3, %16
  call void @llvm.lifetime.start.p0(i64 4, ptr nonnull %5)
  br i1 %1, label %32, label %34

32:                                               ; preds = %29
  %33 = call i32 @_ZNK22ZPhysicalMemoryBacking20fallocate_punch_holeE7zoffsetm(ptr noundef nonnull align 8 dereferenceable(41) %0, i64 noundef %30, i64 noundef %31)
  br label %36

34:                                               ; preds = %29
  %35 = call i32 @_ZNK22ZPhysicalMemoryBacking19fallocate_fill_holeE7zoffsetm(ptr noundef nonnull align 8 dereferenceable(41) %0, i64 noundef %30, i64 noundef %31)
  br label %36

36:                                               ; preds = %34, %32
  %storemerge.i12 = phi i32 [ %35, %34 ], [ %33, %32 ]
  store i32 %storemerge.i12, ptr %5, align 4
  %37 = call noundef zeroext i1 @_ZNK6ZErrnoeqEi(ptr noundef nonnull align 4 dereferenceable(4) %5, i32 noundef 4) #12
  %38 = load i64, ptr %11, align 8
  %39 = icmp ult i64 %38, %31
  %or.cond.i13 = select i1 %37, i1 %39, i1 false
  br i1 %or.cond.i13, label %40, label %42

40:                                               ; preds = %36
  %41 = call i32 @_ZNK22ZPhysicalMemoryBacking19split_and_fallocateEb7zoffsetm(ptr noundef nonnull align 8 dereferenceable(41) %0, i1 noundef zeroext %1, i64 noundef %30, i64 noundef %31)
  br label %_ZNK22ZPhysicalMemoryBacking9fallocateEb7zoffsetm.exit16

42:                                               ; preds = %36
  %.sroa.0.0.copyload.i14 = load i32, ptr %5, align 4
  br label %_ZNK22ZPhysicalMemoryBacking9fallocateEb7zoffsetm.exit16

_ZNK22ZPhysicalMemoryBacking9fallocateEb7zoffsetm.exit16: ; preds = %40, %42
  %.sroa.0.0.i15 = phi i32 [ %41, %40 ], [ %.sroa.0.0.copyload.i14, %42 ]
  call void @llvm.lifetime.end.p0(i64 4, ptr nonnull %5)
  store i32 %.sroa.0.0.i15, ptr %9, align 4
  %43 = call noundef zeroext i1 @_ZNK6ZErrnocvbEv(ptr noundef nonnull align 4 dereferenceable(4) %9) #12
  br i1 %43, label %45, label %44

44:                                               ; preds = %_ZNK22ZPhysicalMemoryBacking9fallocateEb7zoffsetm.exit16
  call void @_ZN6ZErrnoC1Ei(ptr noundef nonnull align 4 dereferenceable(4) %7, i32 noundef 0) #12
  br label %45

45:                                               ; preds = %_ZNK22ZPhysicalMemoryBacking9fallocateEb7zoffsetm.exit16, %_ZNK22ZPhysicalMemoryBacking9fallocateEb7zoffsetm.exit, %44
  %.in = phi ptr [ %7, %44 ], [ %8, %_ZNK22ZPhysicalMemoryBacking9fallocateEb7zoffsetm.exit ], [ %9, %_ZNK22ZPhysicalMemoryBacking9fallocateEb7zoffsetm.exit16 ]
  %46 = load i32, ptr %.in, align 4
  ret i32 %46
}